target datalayout = "e-m:e-p270:32:32-p271:32:32-p272:64:64-i64:64-i128:128-f80:128-n8:16:32:64-S128"
target triple = "x86_64-pc-linux-gnu"

%struct._zend_libxml_globals = type { %struct._zval_struct, %struct.smart_str, ptr, %struct._zend_fcall_info_cache, i8 }
%struct._zval_struct = type { %union._zend_value, %union.anon, %union.anon.2 }
%union._zend_value = type { i64 }
%union.anon = type { i32 }
%union.anon.2 = type { i32 }
%struct.smart_str = type { ptr, i64 }
%struct._zend_fcall_info_cache = type { ptr, ptr, ptr, ptr, ptr }
%struct.php_file_globals = type { i32, i64, i8, i64, ptr, ptr, ptr, ptr, ptr, ptr, ptr, i32, %struct.hostent, ptr, i64 }
%struct.hostent = type { ptr, ptr, i32, i32, ptr }
%struct._php_stream = type { ptr, ptr, %struct._php_stream_filter_chain, %struct._php_stream_filter_chain, ptr, ptr, %struct._zval_struct, i16, [16 x i8], i32, ptr, ptr, ptr, ptr, i64, ptr, i64, i64, i64, i64, ptr }
%struct._php_stream_filter_chain = type { ptr, ptr, ptr }
%struct._xmlURI = type { ptr, ptr, ptr, ptr, ptr, i32, ptr, ptr, ptr, i32, ptr }
%struct._php_stream_statbuf = type { %struct.stat }
%struct.stat = type { i64, i64, i64, i32, i32, i32, i32, i64, i64, i64, i64, %struct.timespec, %struct.timespec, %struct.timespec, [3 x i64] }
%struct.timespec = type { i64, i64 }
%struct._php_stream_wrapper = type { ptr, ptr, i32 }
%struct._php_stream_wrapper_ops = type { ptr, ptr, ptr, ptr, ptr, ptr, ptr, ptr, ptr, ptr, ptr }

@libxml_globals = internal global %struct._zend_libxml_globals zeroinitializer, align 8
@.str.3 = private unnamed_addr constant [15 x i8] c"Stream-Context\00", align 1
@file_globals = external global %struct.php_file_globals, align 8
@.str.10 = private unnamed_addr constant [5 x i8] c"file\00", align 1
@xmlFree = external global ptr, align 8
@.str.73 = private unnamed_addr constant [4 x i8] c"%00\00", align 1
@.str.74 = private unnamed_addr constant [47 x i8] c"URI must not contain percent-encoded NUL bytes\00", align 1

; Function Attrs: nounwind uwtable
define ptr @php_libxml_get_stream_context() #0 {
  %1 = alloca ptr, align 8
  %2 = alloca ptr, align 8
  store ptr @libxml_globals, ptr %1, align 8
  %3 = load ptr, ptr %1, align 8
  %4 = getelementptr inbounds %struct._zval_struct, ptr %3, i32 0, i32 1
  %5 = load i8, ptr %4, align 8
  %6 = zext i8 %5 to i32
  %7 = icmp eq i32 %6, 0
  br i1 %7, label %8, label %9

8:                                                ; preds = %0
  br i1 false, label %10, label %19

9:                                                ; preds = %0
  br i1 true, label %10, label %19

10:                                               ; preds = %9, %8
  store ptr @libxml_globals, ptr %2, align 8
  %11 = load ptr, ptr %2, align 8
  %12 = getelementptr inbounds %struct._zval_struct, ptr %11, i32 0, i32 1
  %13 = load i8, ptr %12, align 8
  %14 = zext i8 %13 to i32
  %15 = icmp eq i32 %14, 0
  %16 = select i1 %15, ptr null, ptr @libxml_globals
  %17 = call i32 @php_le_stream_context()
  %18 = call ptr @zend_fetch_resource_ex(ptr noundef %16, ptr noundef @.str.3, i32 noundef %17)
  br label %28

19:                                               ; preds = %9, %8
  %20 = load ptr, ptr getelementptr inbounds (%struct.php_file_globals, ptr @file_globals, i32 0, i32 7), align 8
  %21 = icmp ne ptr %20, null
  br i1 %21, label %22, label %24

22:                                               ; preds = %19
  %23 = load ptr, ptr getelementptr inbounds (%struct.php_file_globals, ptr @file_globals, i32 0, i32 7), align 8
  br label %26

24:                                               ; preds = %19
  %25 = call ptr @php_stream_context_alloc()
  store ptr %25, ptr getelementptr inbounds (%struct.php_file_globals, ptr @file_globals, i32 0, i32 7), align 8
  br label %26

26:                                               ; preds = %24, %22
  %27 = phi ptr [ %23, %22 ], [ %25, %24 ]
  br label %28

28:                                               ; preds = %26, %10
  %29 = phi ptr [ %18, %10 ], [ %27, %26 ]
  ret ptr %29
}

; Function Attrs: nounwind uwtable
define internal ptr @php_libxml_streams_IO_open_wrapper(ptr noundef %0, ptr noundef %1, i32 noundef %2) #0 {
  %4 = alloca ptr, align 8
  %5 = alloca ptr, align 8
  %6 = alloca ptr, align 8
  %7 = alloca i32, align 4
  %8 = alloca %struct._php_stream_statbuf, align 8
  %9 = alloca ptr, align 8
  %10 = alloca ptr, align 8
  %11 = alloca ptr, align 8
  %12 = alloca ptr, align 8
  %13 = alloca ptr, align 8
  %14 = alloca i32, align 4
  %15 = alloca ptr, align 8
  store ptr %0, ptr %5, align 8
  store ptr %1, ptr %6, align 8
  store i32 %2, ptr %7, align 4
  store ptr null, ptr %9, align 8
  store ptr null, ptr %10, align 8
  store ptr null, ptr %12, align 8
  store ptr null, ptr %13, align 8
  store i32 0, ptr %14, align 4
  %16 = load ptr, ptr %5, align 8
  %17 = call ptr @strstr(ptr noundef %16, ptr noundef @.str.73) #10
  %18 = icmp ne ptr %17, null
  br i1 %18, label %19, label %20

19:                                               ; preds = %3
  call void (ptr, i32, ptr, ...) @php_error_docref(ptr noundef null, i32 noundef 2, ptr noundef @.str.74)
  store ptr null, ptr %4, align 8
  br label %104

20:                                               ; preds = %3
  %21 = load ptr, ptr %5, align 8
  %22 = call ptr @xmlParseURI(ptr noundef %21)
  store ptr %22, ptr %15, align 8
  %23 = load ptr, ptr %15, align 8
  %24 = icmp ne ptr %23, null
  br i1 %24, label %25, label %39

25:                                               ; preds = %20
  %26 = load ptr, ptr %15, align 8
  %27 = getelementptr inbounds %struct._xmlURI, ptr %26, i32 0, i32 0
  %28 = load ptr, ptr %27, align 8
  %29 = icmp eq ptr %28, null
  br i1 %29, label %36, label %30

30:                                               ; preds = %25
  %31 = load ptr, ptr %15, align 8
  %32 = getelementptr inbounds %struct._xmlURI, ptr %31, i32 0, i32 0
  %33 = load ptr, ptr %32, align 8
  %34 = call i32 @xmlStrncmp(ptr noundef %33, ptr noundef @.str.10, i32 noundef 4)
  %35 = icmp eq i32 %34, 0
  br i1 %35, label %36, label %39

36:                                               ; preds = %30, %25
  %37 = load ptr, ptr %5, align 8
  %38 = call ptr @xmlURIUnescapeString(ptr noundef %37, i32 noundef 0, ptr noundef null)
  store ptr %38, ptr %11, align 8
  store i32 1, ptr %14, align 4
  br label %41

39:                                               ; preds = %30, %20
  %40 = load ptr, ptr %5, align 8
  store ptr %40, ptr %11, align 8
  br label %41

41:                                               ; preds = %39, %36
  %42 = load ptr, ptr %15, align 8
  %43 = icmp ne ptr %42, null
  br i1 %43, label %44, label %46

44:                                               ; preds = %41
  %45 = load ptr, ptr %15, align 8
  call void @xmlFreeURI(ptr noundef %45)
  br label %46

46:                                               ; preds = %44, %41
  %47 = load ptr, ptr %11, align 8
  %48 = icmp eq ptr %47, null
  br i1 %48, label %49, label %50

49:                                               ; preds = %46
  store ptr null, ptr %4, align 8
  br label %104

50:                                               ; preds = %46
  %51 = load ptr, ptr %11, align 8
  %52 = call ptr @php_stream_locate_url_wrapper(ptr noundef %51, ptr noundef %12, i32 noundef 0)
  store ptr %52, ptr %10, align 8
  %53 = load ptr, ptr %10, align 8
  %54 = icmp ne ptr %53, null
  br i1 %54, label %55, label %83

55:                                               ; preds = %50
  %56 = load i32, ptr %7, align 4
  %57 = icmp ne i32 %56, 0
  br i1 %57, label %58, label %83

58:                                               ; preds = %55
  %59 = load ptr, ptr %10, align 8
  %60 = getelementptr inbounds %struct._php_stream_wrapper, ptr %59, i32 0, i32 0
  %61 = load ptr, ptr %60, align 8
  %62 = getelementptr inbounds %struct._php_stream_wrapper_ops, ptr %61, i32 0, i32 3
  %63 = load ptr, ptr %62, align 8
  %64 = icmp ne ptr %63, null
  br i1 %64, label %65, label %83

65:                                               ; preds = %58
  %66 = load ptr, ptr %10, align 8
  %67 = getelementptr inbounds %struct._php_stream_wrapper, ptr %66, i32 0, i32 0
  %68 = load ptr, ptr %67, align 8
  %69 = getelementptr inbounds %struct._php_stream_wrapper_ops, ptr %68, i32 0, i32 3
  %70 = load ptr, ptr %69, align 8
  %71 = load ptr, ptr %10, align 8
  %72 = load ptr, ptr %12, align 8
  %73 = call i32 %70(ptr noundef %71, ptr noundef %72, i32 noundef 2, ptr noundef %8, ptr noundef null)
  %74 = icmp eq i32 %73, -1
  br i1 %74, label %75, label %82

75:                                               ; preds = %65
  %76 = load i32, ptr %14, align 4
  %77 = icmp ne i32 %76, 0
  br i1 %77, label %78, label %81

78:                                               ; preds = %75
  %79 = load ptr, ptr @xmlFree, align 8
  %80 = load ptr, ptr %11, align 8
  call void %79(ptr noundef %80)
  br label %81

81:                                               ; preds = %78, %75
  store ptr null, ptr %4, align 8
  br label %104

82:                                               ; preds = %65
  br label %83

83:                                               ; preds = %82, %58, %55, %50
  %84 = call ptr @php_libxml_get_stream_context()
  store ptr %84, ptr %9, align 8
  %85 = load ptr, ptr %12, align 8
  %86 = load ptr, ptr %6, align 8
  %87 = load ptr, ptr %9, align 8
  %88 = call ptr @_php_stream_open_wrapper_ex(ptr noundef %85, ptr noundef %86, i32 noundef 8, ptr noundef null, ptr noundef %87)
  store ptr %88, ptr %13, align 8
  %89 = load ptr, ptr %13, align 8
  %90 = icmp ne ptr %89, null
  br i1 %90, label %91, label %96

91:                                               ; preds = %83
  %92 = load ptr, ptr %13, align 8
  %93 = getelementptr inbounds %struct._php_stream, ptr %92, i32 0, i32 9
  %94 = load i32, ptr %93, align 4
  %95 = or i32 %94, 128
  store i32 %95, ptr %93, align 4
  br label %96

96:                                               ; preds = %91, %83
  %97 = load i32, ptr %14, align 4
  %98 = icmp ne i32 %97, 0
  br i1 %98, label %99, label %102

99:                                               ; preds = %96
  %100 = load ptr, ptr @xmlFree, align 8
  %101 = load ptr, ptr %11, align 8
  call void %100(ptr noundef %101)
  br label %102

102:                                              ; preds = %99, %96
  %103 = load ptr, ptr %13, align 8
  store ptr %103, ptr %4, align 8
  br label %104

104:                                              ; preds = %102, %81, %49, %19
  %105 = load ptr, ptr %4, align 8
  ret ptr %105
}