; Function Attrs: nounwind uwtable
define internal fastcc ptr @php_libxml_streams_IO_open_wrapper(ptr noundef %0, ptr noundef %1, i32 noundef %2) unnamed_addr #0 {
  %4 = alloca %struct._php_stream_statbuf, align 8
  %5 = alloca ptr, align 8
  store ptr null, ptr %5, align 8
  %6 = tail call ptr @strstr(ptr noundef nonnull dereferenceable(1) %0, ptr noundef nonnull dereferenceable(1) @.str.73) #19
  %.not = icmp eq ptr %6, null
  br i1 %.not, label %8, label %7

7:                                                ; preds = %3
  tail call void (ptr, i32, ptr, ...) @php_error_docref(ptr noundef null, i32 noundef 2, ptr noundef nonnull @.str.74) #17
  br label %56

8:                                                ; preds = %3
  %9 = tail call ptr @xmlParseURI(ptr noundef %0) #17
  %.not33 = icmp eq ptr %9, null
  br i1 %.not33, label %19, label %10

10:                                               ; preds = %8
  %11 = load ptr, ptr %9, align 8
  %12 = icmp eq ptr %11, null
  br i1 %12, label %16, label %13

13:                                               ; preds = %10
  %14 = tail call i32 @xmlStrncmp(ptr noundef nonnull %11, ptr noundef nonnull @.str.10, i32 noundef 4) #17
  %15 = icmp eq i32 %14, 0
  br i1 %15, label %16, label %18

16:                                               ; preds = %13, %10
  %17 = tail call ptr @xmlURIUnescapeString(ptr noundef %0, i32 noundef 0, ptr noundef null) #17
  br label %18

18:                                               ; preds = %13, %16
  %.027.ph = phi ptr [ %0, %13 ], [ %17, %16 ]
  %.not36.ph = phi i1 [ true, %13 ], [ false, %16 ]
  tail call void @xmlFreeURI(ptr noundef nonnull %9) #17
  br label %19

19:                                               ; preds = %8, %18
  %.not3643 = phi i1 [ %.not36.ph, %18 ], [ true, %8 ]
  %.02741 = phi ptr [ %.027.ph, %18 ], [ %0, %8 ]
  %20 = icmp eq ptr %.02741, null
  br i1 %20, label %56, label %21

21:                                               ; preds = %19
  %22 = call ptr @php_stream_locate_url_wrapper(ptr noundef nonnull %.02741, ptr noundef nonnull %5, i32 noundef 0) #17
  %23 = icmp ne ptr %22, null
  %24 = icmp ne i32 %2, 0
  %or.cond = and i1 %24, %23
  br i1 %or.cond, label %25, label %36

25:                                               ; preds = %21
  %26 = load ptr, ptr %22, align 8
  %27 = getelementptr inbounds i8, ptr %26, i64 24
  %28 = load ptr, ptr %27, align 8
  %.not34 = icmp eq ptr %28, null
  br i1 %.not34, label %36, label %29

29:                                               ; preds = %25
  %30 = load ptr, ptr %5, align 8
  %31 = call i32 %28(ptr noundef nonnull %22, ptr noundef %30, i32 noundef 2, ptr noundef nonnull %4, ptr noundef null) #17
  %32 = icmp eq i32 %31, -1
  br i1 %32, label %33, label %36

33:                                               ; preds = %29
  br i1 %.not3643, label %56, label %34

34:                                               ; preds = %33
  %35 = load ptr, ptr @xmlFree, align 8
  call void %35(ptr noundef nonnull %.02741) #17
  br label %56

36:                                               ; preds = %29, %25, %21
  %37 = load i8, ptr getelementptr inbounds (%struct._zend_libxml_globals, ptr @libxml_globals, i64 0, i32 0, i32 1), align 8
  %38 = icmp eq i8 %37, 0
  br i1 %38, label %42, label %39

39:                                               ; preds = %36
  %40 = call i32 @php_le_stream_context() #17
  %41 = call ptr @zend_fetch_resource_ex(ptr noundef nonnull @libxml_globals, ptr noundef nonnull @.str.3, i32 noundef %40) #17
  br label %php_libxml_get_stream_context.exit

42:                                               ; preds = %36
  %43 = load ptr, ptr getelementptr inbounds (%struct.php_file_globals, ptr @file_globals, i64 0, i32 7), align 8
  %.not.i = icmp eq ptr %43, null
  br i1 %.not.i, label %44, label %php_libxml_get_stream_context.exit

44:                                               ; preds = %42
  %45 = call ptr @php_stream_context_alloc() #17
  store ptr %45, ptr getelementptr inbounds (%struct.php_file_globals, ptr @file_globals, i64 0, i32 7), align 8
  br label %php_libxml_get_stream_context.exit

php_libxml_get_stream_context.exit:               ; preds = %39, %42, %44
  %46 = phi ptr [ %41, %39 ], [ %45, %44 ], [ %43, %42 ]
  %47 = load ptr, ptr %5, align 8
  %48 = call ptr @_php_stream_open_wrapper_ex(ptr noundef %47, ptr noundef %1, i32 noundef 8, ptr noundef null, ptr noundef %46) #17
  %.not35 = icmp eq ptr %48, null
  br i1 %.not35, label %53, label %49

49:                                               ; preds = %php_libxml_get_stream_context.exit
  %50 = getelementptr inbounds i8, ptr %48, i64 116
  %51 = load i32, ptr %50, align 4
  %52 = or i32 %51, 128
  store i32 %52, ptr %50, align 4
  br label %53

53:                                               ; preds = %49, %php_libxml_get_stream_context.exit
  br i1 %.not3643, label %56, label %54

54:                                               ; preds = %53
  %55 = load ptr, ptr @xmlFree, align 8
  call void %55(ptr noundef nonnull %.02741) #17
  br label %56

56:                                               ; preds = %53, %54, %33, %34, %19, %7
  %.0 = phi ptr [ null, %7 ], [ null, %19 ], [ null, %34 ], [ null, %33 ], [ %48, %54 ], [ %48, %53 ]
  ret ptr %.0
}